; Function Attrs: mustprogress uwtable
define void @_ZN3zmq5own_t15check_term_acksEv(ptr noundef nonnull align 8 dereferenceable(1444) %this) local_unnamed_addr #0 align 2 {
entry:
  %_terminating = getelementptr inbounds i8, ptr %this, i64 1360
  %0 = load i8, ptr %_terminating, align 8
  %1 = and i8 %0, 1
  %tobool.not = icmp eq i8 %1, 0
  br i1 %tobool.not, label %if.end13, label %land.lhs.true

land.lhs.true:                                    ; preds = %entry
  %_processed_seqnum = getelementptr inbounds i8, ptr %this, i64 1376
  %2 = load i64, ptr %_processed_seqnum, align 8
  %_sent_seqnum = getelementptr inbounds i8, ptr %this, i64 1368
  %3 = load atomic i32, ptr %_sent_seqnum seq_cst, align 8
  %conv = zext i32 %3 to i64
  %cmp = icmp eq i64 %2, %conv
  %_term_acks = getelementptr inbounds i8, ptr %this, i64 1440
  %4 = load i32, ptr %_term_acks, align 8
  %cmp3 = icmp eq i32 %4, 0
  %or.cond = select i1 %cmp, i1 %cmp3, i1 false
  br i1 %or.cond, label %do.body, label %if.end13

do.body:                                          ; preds = %land.lhs.true
  %_M_node_count.i.i = getelementptr inbounds i8, ptr %this, i64 1432
  %5 = load i64, ptr %_M_node_count.i.i, align 8
  %cmp.i.i = icmp eq i64 %5, 0
  br i1 %cmp.i.i, label %do.end, label %if.then6

if.then6:                                         ; preds = %do.body
  %6 = load ptr, ptr @stderr, align 8
  %call7 = tail call i32 (ptr, ptr, ...) @fprintf(ptr noundef %6, ptr noundef nonnull @.str, ptr noundef nonnull @.str.5, ptr noundef nonnull @.str.2, i32 noundef 170) #21
  %7 = load ptr, ptr @stderr, align 8
  %call8 = tail call i32 @fflush(ptr noundef %7)
  tail call void @_ZN3zmq9zmq_abortEPKc(ptr noundef nonnull @.str.5)
  br label %do.end

do.end:                                           ; preds = %do.body, %if.then6
  %_owner = getelementptr inbounds i8, ptr %this, i64 1384
  %8 = load ptr, ptr %_owner, align 8
  %tobool9.not = icmp eq ptr %8, null
  br i1 %tobool9.not, label %if.end12, label %if.then10

if.then10:                                        ; preds = %do.end
  tail call void @_ZN3zmq8object_t13send_term_ackEPNS_5own_tE(ptr noundef nonnull align 8 dereferenceable(20) %this, ptr noundef nonnull %8)
  br label %if.end12

if.end12:                                         ; preds = %if.then10, %do.end
  %vtable = load ptr, ptr %this, align 8
  %vfn = getelementptr inbounds i8, ptr %vtable, i64 184
  %9 = load ptr, ptr %vfn, align 8
  tail call void %9(ptr noundef nonnull align 8 dereferenceable(1444) %this)
  br label %if.end13

if.end13:                                         ; preds = %if.end12, %land.lhs.true, %entry
  ret void
}